(lp0
(lp1
ctorch._utils
_rebuild_tensor
p2
(ctorch
LongStorage
p3
((lp4
I4
atp5
Rp6
I0
(L1L
L1L
tp7
(L1L
L1L
tp8
tp9
Rp10
ag2
(g3
((lp11
I3
atp12
Rp13
I0
(L1L
L1L
tp14
(L1L
L1L
tp15
tp16
Rp17
ag2
(g3
((lp18
I5
atp19
Rp20
I0
(L1L
L1L
tp21
(L1L
L1L
tp22
tp23
Rp24
aa.